(dp1
S'code'
p2
I200
sS'html'
p3
S'<!--[if HTML5]><![endif]-->\n<!DOCTYPE html>\n<!-- paulirish.com/2008/conditional-stylesheets-vs-css-hacks-answer-neither/ -->\n<!--[if lt IE 7]><html class="ie ie6 ie-lte9 ie-lte8 ie-lte7 no-js" lang="en"> <![endif]-->\n<!--[if IE 7]><html class="ie ie7 ie-lte9 ie-lte8 ie-lte7 no-js" lang="en"> <![endif]-->\n<!--[if IE 8]><html class="ie ie8 ie-lte9 ie-lte8 no-js" lang="en"> <![endif]-->\n<!--[if IE 9]><html class="ie9 ie-lte9 no-js" lang="en"> <![endif]-->\n<!--[if (gt IE 9)|!(IE)]><!--> <html class="no-js" lang="en"> <!--<![endif]-->\n<head>\n<title>Example web scraping website</title>\n  <!--[if !HTML5]>\n      <meta http-equiv="X-UA-Compatible" content="IE=edge">\n  <![endif]-->\n  <!-- www.phpied.com/conditional-comments-block-downloads/ -->\n  <!-- Always force latest IE rendering engine\n       (even in intranet) & Chrome Frame\n       Remove this if you use the .htaccess -->\n\t   \n  <meta charset="utf-8" />\n\n  <!-- http://dev.w3.org/html5/markup/meta.name.html -->\n  <meta name="application-name" content="places" />\n\n  <!--  Mobile Viewport Fix\n        j.mp/mobileviewport & davidbcalhoun.com/2010/viewport-metatag\n        device-width: Occupy full width of the screen in its current orientation\n        initial-scale = 1.0 retains dimensions instead of zooming out if page height > device height\n        user-scalable = yes allows the user to zoom in -->\n  <meta name="viewport" content="width=device-width, initial-scale=1.0" />\n\n  <link rel="shortcut icon" href="/places/static/images/favicon.ico" type="image/x-icon">\n  <link rel="apple-touch-icon" href="/places/static/images/favicon.png">\n\n  <!-- All JavaScript at the bottom, except for Modernizr which enables\n       HTML5 elements & feature detects -->\n  <script src="/places/static/js/modernizr.custom.js"></script>\n\n  <!-- include stylesheets -->\n  \n\n  <script type="text/javascript"><!--\n    // These variables are used by the web2py_ajax_init function in web2py_ajax.js (which is loaded below).\n    var w2p_ajax_confirm_message = "Are you sure you want to delete this object?";\n    var w2p_ajax_disable_with_message = "Working...";\n    var w2p_ajax_date_format = "%Y-%m-%d";\n    var w2p_ajax_datetime_format = "%Y-%m-%d %H:%M:%S";\n    var ajax_error_500 = \'An error occured, please <a href="/places/default/view/Barbados-20">reload</a> the page\'\n    //--></script>\n\n<meta name="keywords" content="web2py, python, web scraping" />\n<meta name="generator" content="Web2py Web Framework" />\n<meta name="author" content="Web Scraping with Python" />\n<script src="/places/static/js/jquery.js" type="text/javascript"></script><link href="/places/static/css/calendar.css" rel="stylesheet" type="text/css" /><script src="/places/static/js/calendar.js" type="text/javascript"></script><script src="/places/static/js/web2py.js" type="text/javascript"></script><link href="/places/static/css/web2py.css" rel="stylesheet" type="text/css" /><link href="/places/static/css/bootstrap.min.css" rel="stylesheet" type="text/css" /><link href="/places/static/css/bootstrap-responsive.min.css" rel="stylesheet" type="text/css" /><link href="/places/static/css/style.css" rel="stylesheet" type="text/css" /><link href="/places/static/css/web2py_bootstrap.css" rel="stylesheet" type="text/css" />\n\n\n  \n\n  <!-- uncomment here to load jquery-ui\n       <link rel="stylesheet" href="http://ajax.googleapis.com/ajax/libs/jqueryui/1.10.3/themes/ui-lightness/jquery-ui.css" type="text/css" media="all" />\n       <script src="http://ajax.googleapis.com/ajax/libs/jqueryui/1.10.3/jquery-ui.min.js" type="text/javascript"></script>\n       uncomment to load jquery-ui //-->\n  <noscript><link href="/places/static/css/web2py_bootstrap_nojs.css" rel="stylesheet" type="text/css" /></noscript>\n  \n</head>\n\n<body>\n  <!-- Navbar ================================================== -->\n  <div class="navbar navbar-inverse">\n    <div class="flash"></div>\n    <div class="navbar-inner">\n      <div class="container">\n        \n        <!-- the next tag is necessary for bootstrap menus, do not remove -->\n        <button type="button" class="btn btn-navbar" data-toggle="collapse" data-target=".nav-collapse" style="display:none;">\n          <span class="icon-bar"></span>\n          <span class="icon-bar"></span>\n          <span class="icon-bar"></span>\n        </button>\n        \n        <ul id="navbar" class="nav pull-right"><li class="dropdown"><a class="dropdown-toggle" data-toggle="dropdown" href="#" rel="nofollow">Log In</a><ul class="dropdown-menu"><li><a href="/places/default/user/register?_next=/places/default/view/Barbados-20" rel="nofollow"><i class="icon icon-user glyphicon glyphicon-user"></i> Sign Up</a></li><li class="divider"></li><li><a href="/places/default/user/login?_next=/places/default/view/Barbados-20" rel="nofollow"><i class="icon icon-off glyphicon glyphicon-off"></i> Log In</a></li></ul></li></ul>\n        <div class="nav">\n          \n          <ul class="nav"><li class="web2py-menu-first"><a href="/places/default/index">Home</a></li><li class="web2py-menu-last"><a href="/places/default/search">Search</a></li></ul>\n          \n        </div><!--/.nav-collapse -->\n      </div>\n    </div>\n  </div><!--/top navbar -->\n\n  <div class="container">\n    <!-- Masthead ================================================== -->\n      \n    <header class="mastheader row" id="header">\n        <div class="span12">\n            <div class="page-header">\n                <h1>\n                    Example web scraping website\n                    <small></small>\n                </h1>\n            </div>\n        </div>\n    </header>\n\t\n\n    <section id="main" class="main row">\n        \n\n        <div class="span12">\n            \n            \n\n<form action="#" enctype="multipart/form-data" method="post"><table><tr id="places_national_flag__row"><td class="w2p_fl"><label class="readonly" for="places_national_flag" id="places_national_flag__label">National Flag: </label></td><td class="w2p_fw"><img src="/places/static/images/flags/bb.png" /></td><td class="w2p_fc"></td></tr><tr id="places_area__row"><td class="w2p_fl"><label class="readonly" for="places_area" id="places_area__label">Area: </label></td><td class="w2p_fw">431 square kilometres</td><td class="w2p_fc"></td></tr><tr id="places_population__row"><td class="w2p_fl"><label class="readonly" for="places_population" id="places_population__label">Population: </label></td><td class="w2p_fw">285,653</td><td class="w2p_fc"></td></tr><tr id="places_iso__row"><td class="w2p_fl"><label class="readonly" for="places_iso" id="places_iso__label">Iso: </label></td><td class="w2p_fw">BB</td><td class="w2p_fc"></td></tr><tr id="places_country__row"><td class="w2p_fl"><label class="readonly" for="places_country" id="places_country__label">Country: </label></td><td class="w2p_fw">Barbados</td><td class="w2p_fc"></td></tr><tr id="places_capital__row"><td class="w2p_fl"><label class="readonly" for="places_capital" id="places_capital__label">Capital: </label></td><td class="w2p_fw">Bridgetown</td><td class="w2p_fc"></td></tr><tr id="places_continent__row"><td class="w2p_fl"><label class="readonly" for="places_continent" id="places_continent__label">Continent: </label></td><td class="w2p_fw"><a href="/places/default/continent/NA">NA</a></td><td class="w2p_fc"></td></tr><tr id="places_tld__row"><td class="w2p_fl"><label class="readonly" for="places_tld" id="places_tld__label">Tld: </label></td><td class="w2p_fw">.bb</td><td class="w2p_fc"></td></tr><tr id="places_currency_code__row"><td class="w2p_fl"><label class="readonly" for="places_currency_code" id="places_currency_code__label">Currency Code: </label></td><td class="w2p_fw">BBD</td><td class="w2p_fc"></td></tr><tr id="places_currency_name__row"><td class="w2p_fl"><label class="readonly" for="places_currency_name" id="places_currency_name__label">Currency Name: </label></td><td class="w2p_fw">Dollar</td><td class="w2p_fc"></td></tr><tr id="places_phone__row"><td class="w2p_fl"><label class="readonly" for="places_phone" id="places_phone__label">Phone: </label></td><td class="w2p_fw">+1-246</td><td class="w2p_fc"></td></tr><tr id="places_postal_code_format__row"><td class="w2p_fl"><label class="readonly" for="places_postal_code_format" id="places_postal_code_format__label">Postal Code Format: </label></td><td class="w2p_fw">BB#####</td><td class="w2p_fc"></td></tr><tr id="places_postal_code_regex__row"><td class="w2p_fl"><label class="readonly" for="places_postal_code_regex" id="places_postal_code_regex__label">Postal Code Regex: </label></td><td class="w2p_fw">^(?:BB)*(\\d{5})$</td><td class="w2p_fc"></td></tr><tr id="places_languages__row"><td class="w2p_fl"><label class="readonly" for="places_languages" id="places_languages__label">Languages: </label></td><td class="w2p_fw">en-BB</td><td class="w2p_fc"></td></tr><tr id="places_neighbours__row"><td class="w2p_fl"><label class="readonly" for="places_neighbours" id="places_neighbours__label">Neighbours: </label></td><td class="w2p_fw"><div><a href="/places/default/iso//"> </a></div></td><td class="w2p_fc"></td></tr></table><div style="display:none;"><input name="id" type="hidden" value="2036" /></div></form>\n\n<a href="/places/default/edit/Barbados-20">Edit</a>\n\n            \n        </div>\n\n        \n    </section><!--/main-->\n\n    <!-- Footer ================================================== -->\n    <div class="row">\n        <footer class="footer span12" id="footer">\n        </footer>\n    </div>\n\n  </div> <!-- /container -->\n\n  <!-- The javascript =============================================\n       (Placed at the end of the document so the pages load faster) -->\n  <script src="/places/static/js/bootstrap.min.js"></script>\n  <script src="/places/static/js/web2py_bootstrap.js"></script>\n  <!--[if lt IE 7 ]>\n      <script src="/places/static/js/dd_belatedpng.js"></script>\n      <script> DD_belatedPNG.fix(\'img, .png_bg\'); //fix any <img> or .png_bg background-images </script>\n      <![endif]-->\n</body>\n</html>\n\n'
p4
s.