(dp1
S'code'
p2
I200
sS'html'
p3
S'<!--[if HTML5]><![endif]-->\n<!DOCTYPE html>\n<!-- paulirish.com/2008/conditional-stylesheets-vs-css-hacks-answer-neither/ -->\n<!--[if lt IE 7]><html class="ie ie6 ie-lte9 ie-lte8 ie-lte7 no-js" lang="en"> <![endif]-->\n<!--[if IE 7]><html class="ie ie7 ie-lte9 ie-lte8 ie-lte7 no-js" lang="en"> <![endif]-->\n<!--[if IE 8]><html class="ie ie8 ie-lte9 ie-lte8 no-js" lang="en"> <![endif]-->\n<!--[if IE 9]><html class="ie9 ie-lte9 no-js" lang="en"> <![endif]-->\n<!--[if (gt IE 9)|!(IE)]><!--> <html class="no-js" lang="en"> <!--<![endif]-->\n<head>\n<title>Example web scraping website</title>\n  <!--[if !HTML5]>\n      <meta http-equiv="X-UA-Compatible" content="IE=edge">\n  <![endif]-->\n  <!-- www.phpied.com/conditional-comments-block-downloads/ -->\n  <!-- Always force latest IE rendering engine\n       (even in intranet) & Chrome Frame\n       Remove this if you use the .htaccess -->\n\t   \n  <meta charset="utf-8" />\n\n  <!-- http://dev.w3.org/html5/markup/meta.name.html -->\n  <meta name="application-name" content="places" />\n\n  <!--  Mobile Viewport Fix\n        j.mp/mobileviewport & davidbcalhoun.com/2010/viewport-metatag\n        device-width: Occupy full width of the screen in its current orientation\n        initial-scale = 1.0 retains dimensions instead of zooming out if page height > device height\n        user-scalable = yes allows the user to zoom in -->\n  <meta name="viewport" content="width=device-width, initial-scale=1.0" />\n\n  <link rel="shortcut icon" href="/places/static/images/favicon.ico" type="image/x-icon">\n  <link rel="apple-touch-icon" href="/places/static/images/favicon.png">\n\n  <!-- All JavaScript at the bottom, except for Modernizr which enables\n       HTML5 elements & feature detects -->\n  <script src="/places/static/js/modernizr.custom.js"></script>\n\n  <!-- include stylesheets -->\n  \n\n  <script type="text/javascript"><!--\n    // These variables are used by the web2py_ajax_init function in web2py_ajax.js (which is loaded below).\n    var w2p_ajax_confirm_message = "Are you sure you want to delete this object?";\n    var w2p_ajax_disable_with_message = "Working...";\n    var w2p_ajax_date_format = "%Y-%m-%d";\n    var w2p_ajax_datetime_format = "%Y-%m-%d %H:%M:%S";\n    var ajax_error_500 = \'An error occured, please <a href="/places/default/index/9">reload</a> the page\'\n    //--></script>\n\n<meta name="keywords" content="web2py, python, web scraping" />\n<meta name="generator" content="Web2py Web Framework" />\n<meta name="author" content="Web Scraping with Python" />\n<script src="/places/static/js/jquery.js" type="text/javascript"></script><link href="/places/static/css/calendar.css" rel="stylesheet" type="text/css" /><script src="/places/static/js/calendar.js" type="text/javascript"></script><script src="/places/static/js/web2py.js" type="text/javascript"></script><link href="/places/static/css/web2py.css" rel="stylesheet" type="text/css" /><link href="/places/static/css/bootstrap.min.css" rel="stylesheet" type="text/css" /><link href="/places/static/css/bootstrap-responsive.min.css" rel="stylesheet" type="text/css" /><link href="/places/static/css/style.css" rel="stylesheet" type="text/css" /><link href="/places/static/css/web2py_bootstrap.css" rel="stylesheet" type="text/css" />\n\n\n  \n\n  <!-- uncomment here to load jquery-ui\n       <link rel="stylesheet" href="http://ajax.googleapis.com/ajax/libs/jqueryui/1.10.3/themes/ui-lightness/jquery-ui.css" type="text/css" media="all" />\n       <script src="http://ajax.googleapis.com/ajax/libs/jqueryui/1.10.3/jquery-ui.min.js" type="text/javascript"></script>\n       uncomment to load jquery-ui //-->\n  <noscript><link href="/places/static/css/web2py_bootstrap_nojs.css" rel="stylesheet" type="text/css" /></noscript>\n  \n</head>\n\n<body>\n  <!-- Navbar ================================================== -->\n  <div class="navbar navbar-inverse">\n    <div class="flash"></div>\n    <div class="navbar-inner">\n      <div class="container">\n        \n        <!-- the next tag is necessary for bootstrap menus, do not remove -->\n        <button type="button" class="btn btn-navbar" data-toggle="collapse" data-target=".nav-collapse" style="display:none;">\n          <span class="icon-bar"></span>\n          <span class="icon-bar"></span>\n          <span class="icon-bar"></span>\n        </button>\n        \n        <ul id="navbar" class="nav pull-right"><li class="dropdown"><a class="dropdown-toggle" data-toggle="dropdown" href="#" rel="nofollow">Log In</a><ul class="dropdown-menu"><li><a href="/places/default/user/register?_next=/places/default/index/9" rel="nofollow"><i class="icon icon-user glyphicon glyphicon-user"></i> Sign Up</a></li><li class="divider"></li><li><a href="/places/default/user/login?_next=/places/default/index/9" rel="nofollow"><i class="icon icon-off glyphicon glyphicon-off"></i> Log In</a></li></ul></li></ul>\n        <div class="nav">\n          \n          <ul class="nav"><li class="web2py-menu-first"><a href="/places/default/index">Home</a></li><li class="web2py-menu-last"><a href="/places/default/search">Search</a></li></ul>\n          \n        </div><!--/.nav-collapse -->\n      </div>\n    </div>\n  </div><!--/top navbar -->\n\n  <div class="container">\n    <!-- Masthead ================================================== -->\n      \n    <header class="mastheader row" id="header">\n        <div class="span12">\n            <div class="page-header">\n                <h1>\n                    Example web scraping website\n                    <small></small>\n                </h1>\n            </div>\n        </div>\n    </header>\n\t\n\n    <section id="main" class="main row">\n        \n\n        <div class="span12">\n            \n            \n\n<div id="results">\n<table><tr><td><div><a href="/places/default/view/Guatemala-91"><img src="/places/static/images/flags/gt.png" /> Guatemala</a></div></td><td><div><a href="/places/default/view/Guernsey-92"><img src="/places/static/images/flags/gg.png" /> Guernsey</a></div></td></tr><tr><td><div><a href="/places/default/view/Guinea-93"><img src="/places/static/images/flags/gn.png" /> Guinea</a></div></td><td><div><a href="/places/default/view/Guinea-Bissau-94"><img src="/places/static/images/flags/gw.png" /> Guinea-Bissau</a></div></td></tr><tr><td><div><a href="/places/default/view/Guyana-95"><img src="/places/static/images/flags/gy.png" /> Guyana</a></div></td><td><div><a href="/places/default/view/Haiti-96"><img src="/places/static/images/flags/ht.png" /> Haiti</a></div></td></tr><tr><td><div><a href="/places/default/view/Heard-Island-and-McDonald-Islands-97"><img src="/places/static/images/flags/hm.png" /> Heard Island and McDonald Islands</a></div></td><td><div><a href="/places/default/view/Honduras-98"><img src="/places/static/images/flags/hn.png" /> Honduras</a></div></td></tr><tr><td><div><a href="/places/default/view/Hong-Kong-99"><img src="/places/static/images/flags/hk.png" /> Hong Kong</a></div></td><td><div><a href="/places/default/view/Hungary-100"><img src="/places/static/images/flags/hu.png" /> Hungary</a></div></td></tr></table>\n</div>\n\n<div id="pagination">\n\n    <a href="/places/default/index/8">&lt; Previous</a>\n\n|\n\n    <a href="/places/default/index/10">Next &gt;</a>\n\n</div>\n\n            \n        </div>\n\n        \n    </section><!--/main-->\n\n    <!-- Footer ================================================== -->\n    <div class="row">\n        <footer class="footer span12" id="footer">\n        </footer>\n    </div>\n\n  </div> <!-- /container -->\n\n  <!-- The javascript =============================================\n       (Placed at the end of the document so the pages load faster) -->\n  <script src="/places/static/js/bootstrap.min.js"></script>\n  <script src="/places/static/js/web2py_bootstrap.js"></script>\n  <!--[if lt IE 7 ]>\n      <script src="/places/static/js/dd_belatedpng.js"></script>\n      <script> DD_belatedPNG.fix(\'img, .png_bg\'); //fix any <img> or .png_bg background-images </script>\n      <![endif]-->\n</body>\n</html>\n\n'
p4
s.